target datalayout = "e-m:e-p270:32:32-p271:32:32-p272:64:64-i64:64-i128:128-f80:128-n8:16:32:64-S128"
target triple = "x86_64-pc-linux-gnu"

; Function Attrs: nounwind uwtable
define i32 @ASN1_INTEGER_get_int64(ptr noundef %0, ptr noundef %1) #0 {
  %3 = alloca ptr, align 8
  %4 = alloca ptr, align 8
  store ptr %0, ptr %3, align 8, !tbaa !28
  store ptr %1, ptr %4, align 8, !tbaa !3
  %5 = load ptr, ptr %3, align 8, !tbaa !28
  %6 = load ptr, ptr %4, align 8, !tbaa !3
  %7 = call i32 @asn1_string_get_int64(ptr noundef %5, ptr noundef %6, i32 noundef 2)
  ret i32 %7
}

; Function Attrs: nounwind uwtable
define i64 @ASN1_INTEGER_get(ptr noundef %0) #0 {
  %2 = alloca i64, align 8
  %3 = alloca ptr, align 8
  %4 = alloca i32, align 4
  %5 = alloca i64, align 8
  %6 = alloca i32, align 4
  store ptr %0, ptr %3, align 8, !tbaa !3
  call void @llvm.lifetime.start.p0(i64 4, ptr %4) #4
  call void @llvm.lifetime.start.p0(i64 8, ptr %5) #4
  %7 = load ptr, ptr %3, align 8, !tbaa !3
  %8 = icmp eq ptr %7, null
  br i1 %8, label %9, label %10

9:                                                ; preds = %1
  store i64 0, ptr %2, align 8
  store i32 1, ptr %6, align 4
  br label %25

10:                                               ; preds = %1
  %11 = load ptr, ptr %3, align 8, !tbaa !3
  %12 = call i32 @ASN1_INTEGER_get_int64(ptr noundef %5, ptr noundef %11)
  store i32 %12, ptr %4, align 4, !tbaa !13
  %13 = load i32, ptr %4, align 4, !tbaa !13
  %14 = icmp eq i32 %13, 0
  br i1 %14, label %15, label %16

15:                                               ; preds = %10
  store i64 -1, ptr %2, align 8
  store i32 1, ptr %6, align 4
  br label %25

16:                                               ; preds = %10
  %17 = load i64, ptr %5, align 8, !tbaa !19
  %18 = icmp sgt i64 %17, 9223372036854775807
  br i1 %18, label %22, label %19

19:                                               ; preds = %16
  %20 = load i64, ptr %5, align 8, !tbaa !19
  %21 = icmp slt i64 %20, -9223372036854775808
  br i1 %21, label %22, label %23

22:                                               ; preds = %19, %16
  store i64 -1, ptr %2, align 8
  store i32 1, ptr %6, align 4
  br label %25

23:                                               ; preds = %19
  %24 = load i64, ptr %5, align 8, !tbaa !19
  store i64 %24, ptr %2, align 8
  store i32 1, ptr %6, align 4
  br label %25

25:                                               ; preds = %23, %22, %15, %9
  call void @llvm.lifetime.end.p0(i64 8, ptr %5) #4
  call void @llvm.lifetime.end.p0(i64 4, ptr %4) #4
  %26 = load i64, ptr %2, align 8
  ret i64 %26
}