; Function Attrs: nounwind uwtable
define i64 @ASN1_INTEGER_get(ptr noundef captures(address_is_null) %0) local_unnamed_addr #0 {
  %2 = alloca i64, align 8
  call void @llvm.lifetime.start.p0(i64 8, ptr nonnull %2) #6
  %3 = icmp eq ptr %0, null
  br i1 %3, label %8, label %4

4:                                                ; preds = %1
  %5 = call fastcc range(i32 0, 2) i32 @asn1_string_get_int64(ptr noundef nonnull %2, ptr noundef nonnull %0, i32 noundef 2)
  %6 = icmp eq i32 %5, 0
  %7 = load i64, ptr %2, align 8
  %spec.select = select i1 %6, i64 -1, i64 %7
  br label %8

8:                                                ; preds = %4, %1
  %.0 = phi i64 [ 0, %1 ], [ %spec.select, %4 ]
  call void @llvm.lifetime.end.p0(i64 8, ptr nonnull %2) #6
  ret i64 %.0
}